; Function Attrs: nofree norecurse nosync nounwind memory(read, inaccessiblemem: none) uwtable
define hidden ptr @phpdbg_btree_find_closest(ptr nocapture noundef readonly %0, i64 noundef %1) local_unnamed_addr #1 {
  %3 = getelementptr inbounds i8, ptr %0, i64 24
  %4 = load ptr, ptr %3, align 8
  %5 = getelementptr inbounds i8, ptr %0, i64 8
  %6 = load i64, ptr %5, align 8
  %7 = trunc i64 %6 to i32
  %8 = icmp eq ptr %4, null
  br i1 %8, label %.loopexit, label %.preheader50

.preheader50:                                     ; preds = %2, %51
  %.033 = phi ptr [ %.4, %51 ], [ %4, %2 ]
  %.030.in = phi i32 [ %.030, %51 ], [ %7, %2 ]
  %.0 = phi i32 [ %.2, %51 ], [ -1, %2 ]
  %.030 = add i32 %.030.in, -1
  %9 = zext nneg i32 %.030 to i64
  %10 = shl nuw i64 1, %9
  %11 = and i64 %10, %1
  %12 = icmp eq i64 %11, 0
  br i1 %12, label %13, label %41

13:                                               ; preds = %.preheader50
  %14 = load ptr, ptr %.033, align 8
  %.not44 = icmp eq ptr %14, null
  br i1 %.not44, label %15, label %51

15:                                               ; preds = %13
  %16 = icmp eq i32 %.0, -1
  br i1 %16, label %.loopexit, label %17

17:                                               ; preds = %15
  %18 = add i32 %7, -1
  %19 = add i32 %7, -2
  br label %20

20:                                               ; preds = %28, %17
  %.134 = phi ptr [ %4, %17 ], [ %32, %28 ]
  %.131 = phi i32 [ %18, %17 ], [ %33, %28 ]
  %21 = zext nneg i32 %.131 to i64
  %22 = shl nuw i64 1, %21
  %23 = and i64 %22, %1
  %.not45 = icmp eq i64 %23, 0
  br i1 %.not45, label %28, label %24

24:                                               ; preds = %20
  %25 = getelementptr inbounds i8, ptr %.134, i64 8
  %26 = load ptr, ptr %25, align 8
  %27 = icmp ne ptr %26, null
  br label %28

28:                                               ; preds = %24, %20
  %29 = phi i1 [ false, %20 ], [ %27, %24 ]
  %30 = zext i1 %29 to i64
  %31 = getelementptr inbounds [2 x ptr], ptr %.134, i64 0, i64 %30
  %32 = load ptr, ptr %31, align 8
  %33 = add nsw i32 %.131, -1
  %34 = icmp sgt i32 %33, %.0
  br i1 %34, label %20, label %.preheader

.preheader:                                       ; preds = %28
  %smin = tail call i32 @llvm.smin.i32(i32 %.0, i32 %19)
  %.23563 = load ptr, ptr %32, align 8
  %.not4664 = icmp eq i32 %smin, 0
  br i1 %.not4664, label %.loopexit, label %.lr.ph67

.lr.ph67:                                         ; preds = %.preheader, %.lr.ph67
  %.23566 = phi ptr [ %.235, %.lr.ph67 ], [ %.23563, %.preheader ]
  %.23265 = phi i32 [ %35, %.lr.ph67 ], [ %smin, %.preheader ]
  %35 = add nsw i32 %.23265, -1
  %36 = getelementptr inbounds i8, ptr %.23566, i64 8
  %37 = load ptr, ptr %36, align 8
  %38 = icmp ne ptr %37, null
  %39 = zext i1 %38 to i64
  %40 = getelementptr inbounds [2 x ptr], ptr %.23566, i64 0, i64 %39
  %.235 = load ptr, ptr %40, align 8
  %.not46 = icmp eq i32 %35, 0
  br i1 %.not46, label %.loopexit, label %.lr.ph67

41:                                               ; preds = %.preheader50
  %42 = getelementptr inbounds i8, ptr %.033, i64 8
  %43 = load ptr, ptr %42, align 8
  %.not = icmp eq ptr %43, null
  %.33659 = load ptr, ptr %.033, align 8
  br i1 %.not, label %.preheader48, label %44

.preheader48:                                     ; preds = %41
  %.not4260 = icmp eq i32 %.030, 0
  br i1 %.not4260, label %.loopexit, label %.lr.ph

44:                                               ; preds = %41
  %.not43 = icmp eq ptr %.33659, null
  %spec.select = select i1 %.not43, i32 %.0, i32 %.030
  br label %51

.lr.ph:                                           ; preds = %.preheader48, %.lr.ph
  %.33662 = phi ptr [ %.336, %.lr.ph ], [ %.33659, %.preheader48 ]
  %.361 = phi i32 [ %45, %.lr.ph ], [ %.030, %.preheader48 ]
  %45 = add nsw i32 %.361, -1
  %46 = getelementptr inbounds i8, ptr %.33662, i64 8
  %47 = load ptr, ptr %46, align 8
  %48 = icmp ne ptr %47, null
  %49 = zext i1 %48 to i64
  %50 = getelementptr inbounds [2 x ptr], ptr %.33662, i64 0, i64 %49
  %.336 = load ptr, ptr %50, align 8
  %.not42 = icmp eq i32 %45, 0
  br i1 %.not42, label %.loopexit, label %.lr.ph

51:                                               ; preds = %13, %44
  %.4 = phi ptr [ %43, %44 ], [ %14, %13 ]
  %.2 = phi i32 [ %spec.select, %44 ], [ %.0, %13 ]
  %.not47 = icmp eq i32 %.030, 0
  br i1 %.not47, label %.loopexit, label %.preheader50

.loopexit:                                        ; preds = %51, %.lr.ph, %.lr.ph67, %.preheader48, %.preheader, %15, %2
  %.037 = phi ptr [ null, %2 ], [ null, %15 ], [ %.23563, %.preheader ], [ %.33659, %.preheader48 ], [ %.235, %.lr.ph67 ], [ %.336, %.lr.ph ], [ %.4, %51 ]
  ret ptr %.037
}